target datalayout = "e-m:e-p270:32:32-p271:32:32-p272:64:64-i64:64-i128:128-f80:128-n8:16:32:64-S128"
target triple = "x86_64-pc-linux-gnu"

%struct.opj_j2k = type { i32, %union.anon, ptr, ptr, %struct.opj_cp, ptr, ptr, ptr, i32, ptr, ptr, i32, i32, i32 }
%union.anon = type { %struct.opj_j2k_dec }
%struct.opj_j2k_dec = type { i32, ptr, ptr, i32, i32, i32, i32, i32, i32, i32, i64, i32, i32, ptr, %struct.opj_j2k_tlm_info, i32, i32, ptr, i8 }
%struct.opj_j2k_tlm_info = type { i32, ptr, i32 }
%struct.opj_cp = type { i16, i32, i32, i32, i32, ptr, i32, i32, i32, ptr, ptr, i32, i32, ptr, ptr, ptr, i32, i32, i32, ptr, %union.anon.0, i32, i8 }
%union.anon.0 = type { %struct.opj_encoding_param }
%struct.opj_encoding_param = type { i32, i32, ptr, i8, i32, i8 }
%struct.opj_codestream_index = type { i64, i64, i64, i32, ptr, i32, i32, ptr }

@.str.108 = private unnamed_addr constant [16 x i8] c"OPJ_NUM_THREADS\00", align 1
@.str.109 = private unnamed_addr constant [9 x i8] c"ALL_CPUS\00", align 1

; Function Attrs: inlinehint nounwind willreturn memory(read) uwtable
define available_externally i32 @atoi(ptr noundef nonnull %0) #9 {
  %2 = alloca ptr, align 8
  store ptr %0, ptr %2, align 8, !tbaa !44
  %3 = load ptr, ptr %2, align 8, !tbaa !44
  %4 = call i64 @strtol(ptr noundef %3, ptr noundef null, i32 noundef 10) #10
  %5 = trunc i64 %4 to i32
  ret i32 %5
}

; Function Attrs: nounwind uwtable
define internal i32 @opj_j2k_get_default_thread_count() #0 {
  %1 = alloca i32, align 4
  %2 = alloca ptr, align 8
  %3 = alloca i32, align 4
  %4 = alloca i32, align 4
  %5 = alloca i32, align 4
  call void @llvm.lifetime.start.p0(i64 8, ptr %2) #10
  %6 = call ptr @getenv(ptr noundef @.str.108) #10
  store ptr %6, ptr %2, align 8, !tbaa !44
  call void @llvm.lifetime.start.p0(i64 4, ptr %3) #10
  call void @llvm.lifetime.start.p0(i64 4, ptr %4) #10
  %7 = load ptr, ptr %2, align 8, !tbaa !44
  %8 = icmp eq ptr %7, null
  br i1 %8, label %12, label %9

9:                                                ; preds = %0
  %10 = call i32 @opj_has_thread_support()
  %11 = icmp ne i32 %10, 0
  br i1 %11, label %13, label %12

12:                                               ; preds = %9, %0
  store i32 0, ptr %1, align 4
  store i32 1, ptr %5, align 4
  br label %41

13:                                               ; preds = %9
  %14 = call i32 @opj_get_num_cpus()
  store i32 %14, ptr %3, align 4, !tbaa !3
  %15 = load ptr, ptr %2, align 8, !tbaa !44
  %16 = call i32 @strcmp(ptr noundef %15, ptr noundef @.str.109) #11
  %17 = icmp eq i32 %16, 0
  br i1 %17, label %18, label %20

18:                                               ; preds = %13
  %19 = load i32, ptr %3, align 4, !tbaa !3
  store i32 %19, ptr %1, align 4
  store i32 1, ptr %5, align 4
  br label %41

20:                                               ; preds = %13
  %21 = load i32, ptr %3, align 4, !tbaa !3
  %22 = icmp eq i32 %21, 0
  br i1 %22, label %23, label %24

23:                                               ; preds = %20
  store i32 32, ptr %3, align 4, !tbaa !3
  br label %24

24:                                               ; preds = %23, %20
  %25 = load ptr, ptr %2, align 8, !tbaa !44
  %26 = call i32 @atoi(ptr noundef %25) #11
  store i32 %26, ptr %4, align 4, !tbaa !3
  %27 = load i32, ptr %4, align 4, !tbaa !3
  %28 = icmp slt i32 %27, 0
  br i1 %28, label %29, label %30

29:                                               ; preds = %24
  store i32 0, ptr %4, align 4, !tbaa !3
  br label %39

30:                                               ; preds = %24
  %31 = load i32, ptr %4, align 4, !tbaa !3
  %32 = load i32, ptr %3, align 4, !tbaa !3
  %33 = mul nsw i32 2, %32
  %34 = icmp sgt i32 %31, %33
  br i1 %34, label %35, label %38

35:                                               ; preds = %30
  %36 = load i32, ptr %3, align 4, !tbaa !3
  %37 = mul nsw i32 2, %36
  store i32 %37, ptr %4, align 4, !tbaa !3
  br label %38

38:                                               ; preds = %35, %30
  br label %39

39:                                               ; preds = %38, %29
  %40 = load i32, ptr %4, align 4, !tbaa !3
  store i32 %40, ptr %1, align 4
  store i32 1, ptr %5, align 4
  br label %41

41:                                               ; preds = %39, %18, %12
  call void @llvm.lifetime.end.p0(i64 4, ptr %4) #10
  call void @llvm.lifetime.end.p0(i64 4, ptr %3) #10
  call void @llvm.lifetime.end.p0(i64 8, ptr %2) #10
  %42 = load i32, ptr %1, align 4
  ret i32 %42
}

; Function Attrs: nounwind uwtable
define internal ptr @opj_j2k_create_cstr_index() #0 {
  %1 = alloca ptr, align 8
  %2 = alloca ptr, align 8
  %3 = alloca i32, align 4
  call void @llvm.lifetime.start.p0(i64 8, ptr %2) #10
  %4 = call ptr @opj_calloc(i64 noundef 1, i64 noundef 56)
  store ptr %4, ptr %2, align 8, !tbaa !227
  %5 = load ptr, ptr %2, align 8, !tbaa !227
  %6 = icmp ne ptr %5, null
  br i1 %6, label %8, label %7

7:                                                ; preds = %0
  store ptr null, ptr %1, align 8
  store i32 1, ptr %3, align 4
  br label %30

8:                                                ; preds = %0
  %9 = load ptr, ptr %2, align 8, !tbaa !227
  %10 = getelementptr inbounds nuw %struct.opj_codestream_index, ptr %9, i32 0, i32 5
  store i32 100, ptr %10, align 8, !tbaa !302
  %11 = load ptr, ptr %2, align 8, !tbaa !227
  %12 = getelementptr inbounds nuw %struct.opj_codestream_index, ptr %11, i32 0, i32 3
  store i32 0, ptr %12, align 8, !tbaa !303
  %13 = load ptr, ptr %2, align 8, !tbaa !227
  %14 = getelementptr inbounds nuw %struct.opj_codestream_index, ptr %13, i32 0, i32 5
  %15 = load i32, ptr %14, align 8, !tbaa !302
  %16 = zext i32 %15 to i64
  %17 = call ptr @opj_calloc(i64 noundef %16, i64 noundef 24)
  %18 = load ptr, ptr %2, align 8, !tbaa !227
  %19 = getelementptr inbounds nuw %struct.opj_codestream_index, ptr %18, i32 0, i32 4
  store ptr %17, ptr %19, align 8, !tbaa !228
  %20 = load ptr, ptr %2, align 8, !tbaa !227
  %21 = getelementptr inbounds nuw %struct.opj_codestream_index, ptr %20, i32 0, i32 4
  %22 = load ptr, ptr %21, align 8, !tbaa !228
  %23 = icmp ne ptr %22, null
  br i1 %23, label %26, label %24

24:                                               ; preds = %8
  %25 = load ptr, ptr %2, align 8, !tbaa !227
  call void @opj_free(ptr noundef %25)
  store ptr null, ptr %1, align 8
  store i32 1, ptr %3, align 4
  br label %30

26:                                               ; preds = %8
  %27 = load ptr, ptr %2, align 8, !tbaa !227
  %28 = getelementptr inbounds nuw %struct.opj_codestream_index, ptr %27, i32 0, i32 7
  store ptr null, ptr %28, align 8, !tbaa !232
  %29 = load ptr, ptr %2, align 8, !tbaa !227
  store ptr %29, ptr %1, align 8
  store i32 1, ptr %3, align 4
  br label %30

30:                                               ; preds = %26, %24, %7
  call void @llvm.lifetime.end.p0(i64 8, ptr %2) #10
  %31 = load ptr, ptr %1, align 8
  ret ptr %31
}

; Function Attrs: nounwind uwtable
define hidden ptr @opj_j2k_create_decompress() #0 {
  %1 = alloca ptr, align 8
  %2 = alloca ptr, align 8
  %3 = alloca i32, align 4
  call void @llvm.lifetime.start.p0(i64 8, ptr %2) #10
  %4 = call ptr @opj_calloc(i64 noundef 1, i64 noundef 376)
  store ptr %4, ptr %2, align 8, !tbaa !14
  %5 = load ptr, ptr %2, align 8, !tbaa !14
  %6 = icmp ne ptr %5, null
  br i1 %6, label %8, label %7

7:                                                ; preds = %0
  store ptr null, ptr %1, align 8
  store i32 1, ptr %3, align 4
  br label %110

8:                                                ; preds = %0
  %9 = load ptr, ptr %2, align 8, !tbaa !14
  %10 = getelementptr inbounds nuw %struct.opj_j2k, ptr %9, i32 0, i32 0
  store i32 1, ptr %10, align 8, !tbaa !38
  %11 = load ptr, ptr %2, align 8, !tbaa !14
  %12 = getelementptr inbounds nuw %struct.opj_j2k, ptr %11, i32 0, i32 4
  %13 = getelementptr inbounds nuw %struct.opj_cp, ptr %12, i32 0, i32 22
  %14 = load i8, ptr %13, align 4
  %15 = and i8 %14, -3
  %16 = or i8 %15, 2
  store i8 %16, ptr %13, align 4
  %17 = load ptr, ptr %2, align 8, !tbaa !14
  %18 = getelementptr inbounds nuw %struct.opj_j2k, ptr %17, i32 0, i32 4
  %19 = getelementptr inbounds nuw %struct.opj_cp, ptr %18, i32 0, i32 22
  %20 = load i8, ptr %19, align 4
  %21 = and i8 %20, -5
  %22 = or i8 %21, 4
  store i8 %22, ptr %19, align 4
  %23 = load ptr, ptr %2, align 8, !tbaa !14
  %24 = getelementptr inbounds nuw %struct.opj_j2k, ptr %23, i32 0, i32 4
  %25 = getelementptr inbounds nuw %struct.opj_cp, ptr %24, i32 0, i32 21
  store i32 1, ptr %25, align 8, !tbaa !35
  %26 = call ptr @opj_calloc(i64 noundef 1, i64 noundef 5696)
  %27 = load ptr, ptr %2, align 8, !tbaa !14
  %28 = getelementptr inbounds nuw %struct.opj_j2k, ptr %27, i32 0, i32 1
  %29 = getelementptr inbounds nuw %struct.opj_j2k_dec, ptr %28, i32 0, i32 1
  store ptr %26, ptr %29, align 8, !tbaa !20
  %30 = load ptr, ptr %2, align 8, !tbaa !14
  %31 = getelementptr inbounds nuw %struct.opj_j2k, ptr %30, i32 0, i32 1
  %32 = getelementptr inbounds nuw %struct.opj_j2k_dec, ptr %31, i32 0, i32 1
  %33 = load ptr, ptr %32, align 8, !tbaa !20
  %34 = icmp ne ptr %33, null
  br i1 %34, label %37, label %35

35:                                               ; preds = %8
  %36 = load ptr, ptr %2, align 8, !tbaa !14
  call void @opj_j2k_destroy(ptr noundef %36)
  store ptr null, ptr %1, align 8
  store i32 1, ptr %3, align 4
  br label %110

37:                                               ; preds = %8
  %38 = call ptr @opj_calloc(i64 noundef 1, i64 noundef 1000)
  %39 = load ptr, ptr %2, align 8, !tbaa !14
  %40 = getelementptr inbounds nuw %struct.opj_j2k, ptr %39, i32 0, i32 1
  %41 = getelementptr inbounds nuw %struct.opj_j2k_dec, ptr %40, i32 0, i32 2
  store ptr %38, ptr %41, align 8, !tbaa !20
  %42 = load ptr, ptr %2, align 8, !tbaa !14
  %43 = getelementptr inbounds nuw %struct.opj_j2k, ptr %42, i32 0, i32 1
  %44 = getelementptr inbounds nuw %struct.opj_j2k_dec, ptr %43, i32 0, i32 2
  %45 = load ptr, ptr %44, align 8, !tbaa !20
  %46 = icmp ne ptr %45, null
  br i1 %46, label %49, label %47

47:                                               ; preds = %37
  %48 = load ptr, ptr %2, align 8, !tbaa !14
  call void @opj_j2k_destroy(ptr noundef %48)
  store ptr null, ptr %1, align 8
  store i32 1, ptr %3, align 4
  br label %110

49:                                               ; preds = %37
  %50 = load ptr, ptr %2, align 8, !tbaa !14
  %51 = getelementptr inbounds nuw %struct.opj_j2k, ptr %50, i32 0, i32 1
  %52 = getelementptr inbounds nuw %struct.opj_j2k_dec, ptr %51, i32 0, i32 3
  store i32 1000, ptr %52, align 8, !tbaa !20
  %53 = load ptr, ptr %2, align 8, !tbaa !14
  %54 = getelementptr inbounds nuw %struct.opj_j2k, ptr %53, i32 0, i32 1
  %55 = getelementptr inbounds nuw %struct.opj_j2k_dec, ptr %54, i32 0, i32 9
  store i32 -1, ptr %55, align 8, !tbaa !20
  %56 = load ptr, ptr %2, align 8, !tbaa !14
  %57 = getelementptr inbounds nuw %struct.opj_j2k, ptr %56, i32 0, i32 1
  %58 = getelementptr inbounds nuw %struct.opj_j2k_dec, ptr %57, i32 0, i32 10
  store i64 0, ptr %58, align 8, !tbaa !20
  %59 = call ptr @opj_j2k_create_cstr_index()
  %60 = load ptr, ptr %2, align 8, !tbaa !14
  %61 = getelementptr inbounds nuw %struct.opj_j2k, ptr %60, i32 0, i32 7
  store ptr %59, ptr %61, align 8, !tbaa !41
  %62 = load ptr, ptr %2, align 8, !tbaa !14
  %63 = getelementptr inbounds nuw %struct.opj_j2k, ptr %62, i32 0, i32 7
  %64 = load ptr, ptr %63, align 8, !tbaa !41
  %65 = icmp ne ptr %64, null
  br i1 %65, label %68, label %66

66:                                               ; preds = %49
  %67 = load ptr, ptr %2, align 8, !tbaa !14
  call void @opj_j2k_destroy(ptr noundef %67)
  store ptr null, ptr %1, align 8
  store i32 1, ptr %3, align 4
  br label %110

68:                                               ; preds = %49
  %69 = call ptr @opj_procedure_list_create()
  %70 = load ptr, ptr %2, align 8, !tbaa !14
  %71 = getelementptr inbounds nuw %struct.opj_j2k, ptr %70, i32 0, i32 6
  store ptr %69, ptr %71, align 8, !tbaa !39
  %72 = load ptr, ptr %2, align 8, !tbaa !14
  %73 = getelementptr inbounds nuw %struct.opj_j2k, ptr %72, i32 0, i32 6
  %74 = load ptr, ptr %73, align 8, !tbaa !39
  %75 = icmp ne ptr %74, null
  br i1 %75, label %78, label %76

76:                                               ; preds = %68
  %77 = load ptr, ptr %2, align 8, !tbaa !14
  call void @opj_j2k_destroy(ptr noundef %77)
  store ptr null, ptr %1, align 8
  store i32 1, ptr %3, align 4
  br label %110

78:                                               ; preds = %68
  %79 = call ptr @opj_procedure_list_create()
  %80 = load ptr, ptr %2, align 8, !tbaa !14
  %81 = getelementptr inbounds nuw %struct.opj_j2k, ptr %80, i32 0, i32 5
  store ptr %79, ptr %81, align 8, !tbaa !40
  %82 = load ptr, ptr %2, align 8, !tbaa !14
  %83 = getelementptr inbounds nuw %struct.opj_j2k, ptr %82, i32 0, i32 5
  %84 = load ptr, ptr %83, align 8, !tbaa !40
  %85 = icmp ne ptr %84, null
  br i1 %85, label %88, label %86

86:                                               ; preds = %78
  %87 = load ptr, ptr %2, align 8, !tbaa !14
  call void @opj_j2k_destroy(ptr noundef %87)
  store ptr null, ptr %1, align 8
  store i32 1, ptr %3, align 4
  br label %110

88:                                               ; preds = %78
  %89 = call i32 @opj_j2k_get_default_thread_count()
  %90 = call ptr @opj_thread_pool_create(i32 noundef %89)
  %91 = load ptr, ptr %2, align 8, !tbaa !14
  %92 = getelementptr inbounds nuw %struct.opj_j2k, ptr %91, i32 0, i32 10
  store ptr %90, ptr %92, align 8, !tbaa !37
  %93 = load ptr, ptr %2, align 8, !tbaa !14
  %94 = getelementptr inbounds nuw %struct.opj_j2k, ptr %93, i32 0, i32 10
  %95 = load ptr, ptr %94, align 8, !tbaa !37
  %96 = icmp ne ptr %95, null
  br i1 %96, label %101, label %97

97:                                               ; preds = %88
  %98 = call ptr @opj_thread_pool_create(i32 noundef 0)
  %99 = load ptr, ptr %2, align 8, !tbaa !14
  %100 = getelementptr inbounds nuw %struct.opj_j2k, ptr %99, i32 0, i32 10
  store ptr %98, ptr %100, align 8, !tbaa !37
  br label %101

101:                                              ; preds = %97, %88
  %102 = load ptr, ptr %2, align 8, !tbaa !14
  %103 = getelementptr inbounds nuw %struct.opj_j2k, ptr %102, i32 0, i32 10
  %104 = load ptr, ptr %103, align 8, !tbaa !37
  %105 = icmp ne ptr %104, null
  br i1 %105, label %108, label %106

106:                                              ; preds = %101
  %107 = load ptr, ptr %2, align 8, !tbaa !14
  call void @opj_j2k_destroy(ptr noundef %107)
  store ptr null, ptr %1, align 8
  store i32 1, ptr %3, align 4
  br label %110

108:                                              ; preds = %101
  %109 = load ptr, ptr %2, align 8, !tbaa !14
  store ptr %109, ptr %1, align 8
  store i32 1, ptr %3, align 4
  br label %110

110:                                              ; preds = %108, %106, %86, %76, %66, %47, %35, %7
  call void @llvm.lifetime.end.p0(i64 8, ptr %2) #10
  %111 = load ptr, ptr %1, align 8
  ret ptr %111
}