; Function Attrs: nounwind uwtable
define hidden ptr @opj_j2k_create_decompress() local_unnamed_addr #3 {
  %1 = tail call ptr @opj_calloc(i64 noundef 1, i64 noundef 376) #21
  %.not = icmp eq ptr %1, null
  br i1 %.not, label %.thread, label %2

2:                                                ; preds = %0
  store i32 1, ptr %1, align 8, !tbaa !31
  %3 = getelementptr inbounds nuw i8, ptr %1, i64 308
  %4 = load i8, ptr %3, align 4
  %5 = or i8 %4, 6
  store i8 %5, ptr %3, align 4
  %6 = getelementptr inbounds nuw i8, ptr %1, i64 304
  store i32 1, ptr %6, align 8, !tbaa !28
  %7 = tail call ptr @opj_calloc(i64 noundef 1, i64 noundef 5696) #21
  %8 = getelementptr inbounds nuw i8, ptr %1, i64 16
  store ptr %7, ptr %8, align 8, !tbaa !12
  %.not31 = icmp eq ptr %7, null
  br i1 %.not31, label %.thread.sink.split, label %9

9:                                                ; preds = %2
  %10 = tail call ptr @opj_calloc(i64 noundef 1, i64 noundef 1000) #21
  %11 = getelementptr inbounds nuw i8, ptr %1, i64 24
  store ptr %10, ptr %11, align 8, !tbaa !12
  %.not32 = icmp eq ptr %10, null
  br i1 %.not32, label %.thread.sink.split, label %12

12:                                               ; preds = %9
  %13 = getelementptr inbounds nuw i8, ptr %1, i64 32
  store i32 1000, ptr %13, align 8, !tbaa !12
  %14 = getelementptr inbounds nuw i8, ptr %1, i64 56
  store i32 -1, ptr %14, align 8, !tbaa !12
  %15 = getelementptr inbounds nuw i8, ptr %1, i64 64
  store i64 0, ptr %15, align 8, !tbaa !12
  %16 = tail call ptr @opj_calloc(i64 noundef 1, i64 noundef 56) #21
  %.not.i = icmp eq ptr %16, null
  br i1 %.not.i, label %23, label %17

17:                                               ; preds = %12
  %18 = getelementptr inbounds nuw i8, ptr %16, i64 40
  store i32 100, ptr %18, align 8, !tbaa !269
  %19 = getelementptr inbounds nuw i8, ptr %16, i64 24
  store i32 0, ptr %19, align 8, !tbaa !270
  %20 = tail call ptr @opj_calloc(i64 noundef 100, i64 noundef 24) #21
  %21 = getelementptr inbounds nuw i8, ptr %16, i64 32
  store ptr %20, ptr %21, align 8, !tbaa !198
  %.not11.i = icmp eq ptr %20, null
  br i1 %.not11.i, label %22, label %25

22:                                               ; preds = %17
  tail call void @opj_free(ptr noundef nonnull %16) #21
  br label %23

23:                                               ; preds = %22, %12
  %24 = getelementptr inbounds nuw i8, ptr %1, i64 328
  store ptr null, ptr %24, align 8, !tbaa !46
  br label %.thread.sink.split

25:                                               ; preds = %17
  %26 = getelementptr inbounds nuw i8, ptr %16, i64 48
  store ptr null, ptr %26, align 8, !tbaa !203
  %27 = getelementptr inbounds nuw i8, ptr %1, i64 328
  store ptr %16, ptr %27, align 8, !tbaa !46
  %28 = tail call ptr @opj_procedure_list_create() #21
  %29 = getelementptr inbounds nuw i8, ptr %1, i64 320
  store ptr %28, ptr %29, align 8, !tbaa !32
  %.not34 = icmp eq ptr %28, null
  br i1 %.not34, label %.thread.sink.split, label %30

30:                                               ; preds = %25
  %31 = tail call ptr @opj_procedure_list_create() #21
  %32 = getelementptr inbounds nuw i8, ptr %1, i64 312
  store ptr %31, ptr %32, align 8, !tbaa !33
  %.not35 = icmp eq ptr %31, null
  br i1 %.not35, label %.thread.sink.split, label %33

33:                                               ; preds = %30
  %34 = tail call ptr @getenv(ptr noundef nonnull @.str.108) #21
  %35 = icmp eq ptr %34, null
  br i1 %35, label %opj_j2k_get_default_thread_count.exit, label %36

36:                                               ; preds = %33
  %37 = tail call i32 @opj_has_thread_support() #21
  %.not.i38 = icmp eq i32 %37, 0
  br i1 %.not.i38, label %opj_j2k_get_default_thread_count.exit, label %38

38:                                               ; preds = %36
  %39 = tail call i32 @opj_get_num_cpus() #21
  %40 = tail call i32 @strcmp(ptr noundef nonnull dereferenceable(1) %34, ptr noundef nonnull dereferenceable(9) @.str.109) #22
  %41 = icmp eq i32 %40, 0
  br i1 %41, label %opj_j2k_get_default_thread_count.exit, label %42

42:                                               ; preds = %38
  %43 = tail call i64 @strtol(ptr noundef nonnull captures(none) %34, ptr noundef null, i32 noundef 10) #21
  %44 = trunc i64 %43 to i32
  %45 = icmp slt i32 %44, 0
  br i1 %45, label %opj_j2k_get_default_thread_count.exit, label %46

46:                                               ; preds = %42
  %47 = icmp eq i32 %39, 0
  %48 = shl nsw i32 %39, 1
  %49 = select i1 %47, i32 64, i32 %48
  %spec.select.i = tail call i32 @llvm.smin.i32(i32 %49, i32 %44)
  br label %opj_j2k_get_default_thread_count.exit

opj_j2k_get_default_thread_count.exit:            ; preds = %33, %36, %38, %42, %46
  %.010.i = phi i32 [ 0, %36 ], [ 0, %33 ], [ %39, %38 ], [ 0, %42 ], [ %spec.select.i, %46 ]
  %50 = tail call ptr @opj_thread_pool_create(i32 noundef %.010.i) #21
  %51 = getelementptr inbounds nuw i8, ptr %1, i64 352
  store ptr %50, ptr %51, align 8, !tbaa !30
  %.not36 = icmp eq ptr %50, null
  br i1 %.not36, label %52, label %.thread

52:                                               ; preds = %opj_j2k_get_default_thread_count.exit
  %53 = tail call ptr @opj_thread_pool_create(i32 noundef 0) #21
  store ptr %53, ptr %51, align 8, !tbaa !30
  %.not37 = icmp eq ptr %53, null
  br i1 %.not37, label %.thread.sink.split, label %.thread

.thread.sink.split:                               ; preds = %52, %30, %25, %9, %2, %23
  tail call void @opj_j2k_destroy(ptr noundef nonnull %1)
  br label %.thread

.thread:                                          ; preds = %.thread.sink.split, %opj_j2k_get_default_thread_count.exit, %52, %0
  %.0 = phi ptr [ null, %0 ], [ %1, %52 ], [ %1, %opj_j2k_get_default_thread_count.exit ], [ null, %.thread.sink.split ]
  ret ptr %.0
}